target datalayout = "e-m:e-p270:32:32-p271:32:32-p272:64:64-i64:64-i128:128-f80:128-n8:16:32:64-S128"
target triple = "x86_64-pc-linux-gnu"

%struct.FilterParams = type { i32, double, ptr, ptr, ptr }

; Function Attrs: nounwind uwtable
define internal void @blend_screen_9bit(ptr noundef %0, i64 noundef %1, ptr noundef %2, i64 noundef %3, ptr noundef %4, i64 noundef %5, i64 noundef %6, i64 noundef %7, ptr noundef %8, ptr noundef %9) #0 {
  %11 = alloca ptr, align 8
  %12 = alloca i64, align 8
  %13 = alloca ptr, align 8
  %14 = alloca i64, align 8
  %15 = alloca ptr, align 8
  %16 = alloca i64, align 8
  %17 = alloca i64, align 8
  %18 = alloca i64, align 8
  %19 = alloca ptr, align 8
  %20 = alloca ptr, align 8
  %21 = alloca ptr, align 8
  %22 = alloca ptr, align 8
  %23 = alloca ptr, align 8
  %24 = alloca float, align 4
  %25 = alloca i32, align 4
  %26 = alloca i32, align 4
  %27 = alloca i32, align 4
  store ptr %0, ptr %11, align 8, !tbaa !46
  store i64 %1, ptr %12, align 8, !tbaa !88
  store ptr %2, ptr %13, align 8, !tbaa !46
  store i64 %3, ptr %14, align 8, !tbaa !88
  store ptr %4, ptr %15, align 8, !tbaa !46
  store i64 %5, ptr %16, align 8, !tbaa !88
  store i64 %6, ptr %17, align 8, !tbaa !88
  store i64 %7, ptr %18, align 8, !tbaa !88
  store ptr %8, ptr %19, align 8, !tbaa !77
  store ptr %9, ptr %20, align 8, !tbaa !89
  call void @llvm.lifetime.start.p0(i64 8, ptr %21) #12
  %28 = load ptr, ptr %11, align 8, !tbaa !46
  store ptr %28, ptr %21, align 8, !tbaa !103
  call void @llvm.lifetime.start.p0(i64 8, ptr %22) #12
  %29 = load ptr, ptr %13, align 8, !tbaa !46
  store ptr %29, ptr %22, align 8, !tbaa !103
  call void @llvm.lifetime.start.p0(i64 8, ptr %23) #12
  %30 = load ptr, ptr %15, align 8, !tbaa !46
  store ptr %30, ptr %23, align 8, !tbaa !103
  call void @llvm.lifetime.start.p0(i64 4, ptr %24) #12
  %31 = load ptr, ptr %19, align 8, !tbaa !77
  %32 = getelementptr inbounds nuw %struct.FilterParams, ptr %31, i32 0, i32 1
  %33 = load double, ptr %32, align 8, !tbaa !82
  %34 = fptrunc nsz double %33 to float
  store float %34, ptr %24, align 4, !tbaa !99
  %35 = load i64, ptr %16, align 8, !tbaa !88
  %36 = udiv i64 %35, 2
  store i64 %36, ptr %16, align 8, !tbaa !88
  %37 = load i64, ptr %12, align 8, !tbaa !88
  %38 = udiv i64 %37, 2
  store i64 %38, ptr %12, align 8, !tbaa !88
  %39 = load i64, ptr %14, align 8, !tbaa !88
  %40 = udiv i64 %39, 2
  store i64 %40, ptr %14, align 8, !tbaa !88
  call void @llvm.lifetime.start.p0(i64 4, ptr %25) #12
  store i32 0, ptr %25, align 4, !tbaa !37
  br label %41

41:                                               ; preds = %108, %10
  %42 = load i32, ptr %25, align 4, !tbaa !37
  %43 = sext i32 %42 to i64
  %44 = load i64, ptr %18, align 8, !tbaa !88
  %45 = icmp slt i64 %43, %44
  br i1 %45, label %47, label %46

46:                                               ; preds = %41
  store i32 2, ptr %26, align 4
  call void @llvm.lifetime.end.p0(i64 4, ptr %25) #12
  br label %111

47:                                               ; preds = %41
  call void @llvm.lifetime.start.p0(i64 4, ptr %27) #12
  store i32 0, ptr %27, align 4, !tbaa !37
  br label %48

48:                                               ; preds = %95, %47
  %49 = load i32, ptr %27, align 4, !tbaa !37
  %50 = sext i32 %49 to i64
  %51 = load i64, ptr %17, align 8, !tbaa !88
  %52 = icmp slt i64 %50, %51
  br i1 %52, label %54, label %53

53:                                               ; preds = %48
  store i32 5, ptr %26, align 4
  call void @llvm.lifetime.end.p0(i64 4, ptr %27) #12
  br label %98

54:                                               ; preds = %48
  %55 = load ptr, ptr %21, align 8, !tbaa !103
  %56 = load i32, ptr %27, align 4, !tbaa !37
  %57 = sext i32 %56 to i64
  %58 = getelementptr inbounds i16, ptr %55, i64 %57
  %59 = load i16, ptr %58, align 2, !tbaa !105
  %60 = zext i16 %59 to i32
  %61 = sitofp i32 %60 to float
  %62 = load ptr, ptr %21, align 8, !tbaa !103
  %63 = load i32, ptr %27, align 4, !tbaa !37
  %64 = sext i32 %63 to i64
  %65 = getelementptr inbounds i16, ptr %62, i64 %64
  %66 = load i16, ptr %65, align 2, !tbaa !105
  %67 = zext i16 %66 to i32
  %68 = sub nsw i32 511, %67
  %69 = load ptr, ptr %22, align 8, !tbaa !103
  %70 = load i32, ptr %27, align 4, !tbaa !37
  %71 = sext i32 %70 to i64
  %72 = getelementptr inbounds i16, ptr %69, i64 %71
  %73 = load i16, ptr %72, align 2, !tbaa !105
  %74 = zext i16 %73 to i32
  %75 = sub nsw i32 511, %74
  %76 = mul nsw i32 %68, %75
  %77 = sdiv i32 %76, 511
  %78 = mul nsw i32 1, %77
  %79 = sub nsw i32 511, %78
  %80 = load ptr, ptr %21, align 8, !tbaa !103
  %81 = load i32, ptr %27, align 4, !tbaa !37
  %82 = sext i32 %81 to i64
  %83 = getelementptr inbounds i16, ptr %80, i64 %82
  %84 = load i16, ptr %83, align 2, !tbaa !105
  %85 = zext i16 %84 to i32
  %86 = sub nsw i32 %79, %85
  %87 = sitofp i32 %86 to float
  %88 = load float, ptr %24, align 4, !tbaa !99
  %89 = call nsz float @llvm.fmuladd.f32(float %87, float %88, float %61)
  %90 = fptoui float %89 to i16
  %91 = load ptr, ptr %23, align 8, !tbaa !103
  %92 = load i32, ptr %27, align 4, !tbaa !37
  %93 = sext i32 %92 to i64
  %94 = getelementptr inbounds i16, ptr %91, i64 %93
  store i16 %90, ptr %94, align 2, !tbaa !105
  br label %95

95:                                               ; preds = %54
  %96 = load i32, ptr %27, align 4, !tbaa !37
  %97 = add nsw i32 %96, 1
  store i32 %97, ptr %27, align 4, !tbaa !37
  br label %48, !llvm.loop !248

98:                                               ; preds = %53
  %99 = load i64, ptr %16, align 8, !tbaa !88
  %100 = load ptr, ptr %23, align 8, !tbaa !103
  %101 = getelementptr inbounds i16, ptr %100, i64 %99
  store ptr %101, ptr %23, align 8, !tbaa !103
  %102 = load i64, ptr %12, align 8, !tbaa !88
  %103 = load ptr, ptr %21, align 8, !tbaa !103
  %104 = getelementptr inbounds i16, ptr %103, i64 %102
  store ptr %104, ptr %21, align 8, !tbaa !103
  %105 = load i64, ptr %14, align 8, !tbaa !88
  %106 = load ptr, ptr %22, align 8, !tbaa !103
  %107 = getelementptr inbounds i16, ptr %106, i64 %105
  store ptr %107, ptr %22, align 8, !tbaa !103
  br label %108

108:                                              ; preds = %98
  %109 = load i32, ptr %25, align 4, !tbaa !37
  %110 = add nsw i32 %109, 1
  store i32 %110, ptr %25, align 4, !tbaa !37
  br label %41, !llvm.loop !249

111:                                              ; preds = %46
  call void @llvm.lifetime.end.p0(i64 4, ptr %24) #12
  call void @llvm.lifetime.end.p0(i64 8, ptr %23) #12
  call void @llvm.lifetime.end.p0(i64 8, ptr %22) #12
  call void @llvm.lifetime.end.p0(i64 8, ptr %21) #12
  ret void
}